target datalayout = "e-m:e-p270:32:32-p271:32:32-p272:64:64-i64:64-i128:128-f80:128-n8:16:32:64-S128"
target triple = "x86_64-pc-linux-gnu"

%struct.bio_st = type { ptr, ptr, ptr, i32, i32, i32, i32, i32, i32, ptr, ptr, i64, i64 }
%struct.bio_bio_st = type { ptr, i32, i64, i64, i64, ptr, i8, i8, i8, i64 }

@.str = private unnamed_addr constant [121 x i8] c"generated/home/dtcxzyw/WorkSpace/Projects/compilers/llvm-opt-benchmark/bench/libquic/libquic/boringssl/crypto/bio/pair.c\00", align 1

; Function Attrs: nounwind uwtable
define internal i64 @bio_zero_copy_get_write_buf(ptr noundef %0, ptr noundef %1, ptr noundef %2) #0 {
  %4 = alloca ptr, align 8
  %5 = alloca ptr, align 8
  %6 = alloca ptr, align 8
  %7 = alloca i64, align 8
  %8 = alloca i64, align 8
  store ptr %0, ptr %4, align 8, !tbaa !23
  store ptr %1, ptr %5, align 8, !tbaa !11
  store ptr %2, ptr %6, align 8, !tbaa !13
  call void @llvm.lifetime.start.p0(i64 8, ptr %7) #8
  call void @llvm.lifetime.start.p0(i64 8, ptr %8) #8
  %9 = load ptr, ptr %4, align 8, !tbaa !23
  %10 = getelementptr inbounds nuw %struct.bio_bio_st, ptr %9, i32 0, i32 3
  %11 = load i64, ptr %10, align 8, !tbaa !31
  %12 = load ptr, ptr %4, align 8, !tbaa !23
  %13 = getelementptr inbounds nuw %struct.bio_bio_st, ptr %12, i32 0, i32 2
  %14 = load i64, ptr %13, align 8, !tbaa !29
  %15 = add i64 %11, %14
  store i64 %15, ptr %7, align 8, !tbaa !15
  %16 = load i64, ptr %7, align 8, !tbaa !15
  %17 = load ptr, ptr %4, align 8, !tbaa !23
  %18 = getelementptr inbounds nuw %struct.bio_bio_st, ptr %17, i32 0, i32 4
  %19 = load i64, ptr %18, align 8, !tbaa !30
  %20 = icmp uge i64 %16, %19
  br i1 %20, label %21, label %32

21:                                               ; preds = %3
  %22 = load ptr, ptr %4, align 8, !tbaa !23
  %23 = getelementptr inbounds nuw %struct.bio_bio_st, ptr %22, i32 0, i32 4
  %24 = load i64, ptr %23, align 8, !tbaa !30
  %25 = load i64, ptr %7, align 8, !tbaa !15
  %26 = sub i64 %25, %24
  store i64 %26, ptr %7, align 8, !tbaa !15
  %27 = load ptr, ptr %4, align 8, !tbaa !23
  %28 = getelementptr inbounds nuw %struct.bio_bio_st, ptr %27, i32 0, i32 3
  %29 = load i64, ptr %28, align 8, !tbaa !31
  %30 = load i64, ptr %7, align 8, !tbaa !15
  %31 = sub i64 %29, %30
  store i64 %31, ptr %8, align 8, !tbaa !15
  br label %38

32:                                               ; preds = %3
  %33 = load ptr, ptr %4, align 8, !tbaa !23
  %34 = getelementptr inbounds nuw %struct.bio_bio_st, ptr %33, i32 0, i32 4
  %35 = load i64, ptr %34, align 8, !tbaa !30
  %36 = load i64, ptr %7, align 8, !tbaa !15
  %37 = sub i64 %35, %36
  store i64 %37, ptr %8, align 8, !tbaa !15
  br label %38

38:                                               ; preds = %32, %21
  %39 = load ptr, ptr %4, align 8, !tbaa !23
  %40 = getelementptr inbounds nuw %struct.bio_bio_st, ptr %39, i32 0, i32 5
  %41 = load ptr, ptr %40, align 8, !tbaa !32
  %42 = load ptr, ptr %5, align 8, !tbaa !11
  store ptr %41, ptr %42, align 8, !tbaa !33
  %43 = load i64, ptr %7, align 8, !tbaa !15
  %44 = load ptr, ptr %6, align 8, !tbaa !13
  store i64 %43, ptr %44, align 8, !tbaa !15
  %45 = load i64, ptr %8, align 8, !tbaa !15
  call void @llvm.lifetime.end.p0(i64 8, ptr %8) #8
  call void @llvm.lifetime.end.p0(i64 8, ptr %7) #8
  ret i64 %45
}

; Function Attrs: nounwind uwtable
define hidden i32 @BIO_zero_copy_get_write_buf(ptr noundef %0, ptr noundef %1, ptr noundef %2, ptr noundef %3) #0 {
  %5 = alloca i32, align 4
  %6 = alloca ptr, align 8
  %7 = alloca ptr, align 8
  %8 = alloca ptr, align 8
  %9 = alloca ptr, align 8
  %10 = alloca ptr, align 8
  %11 = alloca ptr, align 8
  %12 = alloca i64, align 8
  %13 = alloca i32, align 4
  store ptr %0, ptr %6, align 8, !tbaa !6
  store ptr %1, ptr %7, align 8, !tbaa !11
  store ptr %2, ptr %8, align 8, !tbaa !13
  store ptr %3, ptr %9, align 8, !tbaa !13
  call void @llvm.lifetime.start.p0(i64 8, ptr %10) #8
  call void @llvm.lifetime.start.p0(i64 8, ptr %11) #8
  call void @llvm.lifetime.start.p0(i64 8, ptr %12) #8
  %14 = load ptr, ptr %9, align 8, !tbaa !13
  store i64 0, ptr %14, align 8, !tbaa !15
  %15 = load ptr, ptr %6, align 8, !tbaa !6
  call void @BIO_clear_retry_flags(ptr noundef %15)
  %16 = load ptr, ptr %6, align 8, !tbaa !6
  %17 = getelementptr inbounds nuw %struct.bio_st, ptr %16, i32 0, i32 3
  %18 = load i32, ptr %17, align 8, !tbaa !17
  %19 = icmp ne i32 %18, 0
  br i1 %19, label %21, label %20

20:                                               ; preds = %4
  call void @ERR_put_error(i32 noundef 17, i32 noundef 0, i32 noundef 114, ptr noundef @.str, i32 noundef 314)
  store i32 0, ptr %5, align 4
  store i32 1, ptr %13, align 4
  br label %87

21:                                               ; preds = %4
  %22 = load ptr, ptr %6, align 8, !tbaa !6
  %23 = getelementptr inbounds nuw %struct.bio_st, ptr %22, i32 0, i32 9
  %24 = load ptr, ptr %23, align 8, !tbaa !22
  store ptr %24, ptr %10, align 8, !tbaa !23
  %25 = load ptr, ptr %10, align 8, !tbaa !23
  %26 = icmp ne ptr %25, null
  br i1 %26, label %27, label %37

27:                                               ; preds = %21
  %28 = load ptr, ptr %10, align 8, !tbaa !23
  %29 = getelementptr inbounds nuw %struct.bio_bio_st, ptr %28, i32 0, i32 5
  %30 = load ptr, ptr %29, align 8, !tbaa !32
  %31 = icmp ne ptr %30, null
  br i1 %31, label %32, label %37

32:                                               ; preds = %27
  %33 = load ptr, ptr %10, align 8, !tbaa !23
  %34 = getelementptr inbounds nuw %struct.bio_bio_st, ptr %33, i32 0, i32 0
  %35 = load ptr, ptr %34, align 8, !tbaa !25
  %36 = icmp ne ptr %35, null
  br i1 %36, label %38, label %37

37:                                               ; preds = %32, %27, %21
  call void @ERR_put_error(i32 noundef 17, i32 noundef 0, i32 noundef 115, ptr noundef @.str, i32 noundef 321)
  store i32 0, ptr %5, align 4
  store i32 1, ptr %13, align 4
  br label %87

38:                                               ; preds = %32
  %39 = load ptr, ptr %10, align 8, !tbaa !23
  %40 = getelementptr inbounds nuw %struct.bio_bio_st, ptr %39, i32 0, i32 0
  %41 = load ptr, ptr %40, align 8, !tbaa !25
  %42 = getelementptr inbounds nuw %struct.bio_st, ptr %41, i32 0, i32 9
  %43 = load ptr, ptr %42, align 8, !tbaa !22
  store ptr %43, ptr %11, align 8, !tbaa !23
  %44 = load ptr, ptr %11, align 8, !tbaa !23
  %45 = icmp ne ptr %44, null
  br i1 %45, label %46, label %59

46:                                               ; preds = %38
  %47 = load ptr, ptr %11, align 8, !tbaa !23
  %48 = getelementptr inbounds nuw %struct.bio_bio_st, ptr %47, i32 0, i32 0
  %49 = load ptr, ptr %48, align 8, !tbaa !25
  %50 = icmp ne ptr %49, null
  br i1 %50, label %51, label %59

51:                                               ; preds = %46
  %52 = load ptr, ptr %11, align 8, !tbaa !23
  %53 = getelementptr inbounds nuw %struct.bio_bio_st, ptr %52, i32 0, i32 0
  %54 = load ptr, ptr %53, align 8, !tbaa !25
  %55 = getelementptr inbounds nuw %struct.bio_st, ptr %54, i32 0, i32 9
  %56 = load ptr, ptr %55, align 8, !tbaa !22
  %57 = load ptr, ptr %10, align 8, !tbaa !23
  %58 = icmp ne ptr %56, %57
  br i1 %58, label %59, label %60

59:                                               ; preds = %51, %46, %38
  call void @ERR_put_error(i32 noundef 17, i32 noundef 0, i32 noundef 115, ptr noundef @.str, i32 noundef 326)
  store i32 0, ptr %5, align 4
  store i32 1, ptr %13, align 4
  br label %87

60:                                               ; preds = %51
  %61 = load ptr, ptr %10, align 8, !tbaa !23
  %62 = getelementptr inbounds nuw %struct.bio_bio_st, ptr %61, i32 0, i32 8
  %63 = load i8, ptr %62, align 2, !tbaa !34
  %64 = icmp ne i8 %63, 0
  br i1 %64, label %65, label %66

65:                                               ; preds = %60
  call void @ERR_put_error(i32 noundef 17, i32 noundef 0, i32 noundef 104, ptr noundef @.str, i32 noundef 333)
  store i32 0, ptr %5, align 4
  store i32 1, ptr %13, align 4
  br label %87

66:                                               ; preds = %60
  %67 = load ptr, ptr %10, align 8, !tbaa !23
  %68 = getelementptr inbounds nuw %struct.bio_bio_st, ptr %67, i32 0, i32 9
  store i64 0, ptr %68, align 8, !tbaa !28
  %69 = load ptr, ptr %10, align 8, !tbaa !23
  %70 = getelementptr inbounds nuw %struct.bio_bio_st, ptr %69, i32 0, i32 1
  %71 = load i32, ptr %70, align 8, !tbaa !36
  %72 = icmp ne i32 %71, 0
  br i1 %72, label %73, label %74

73:                                               ; preds = %66
  call void @ERR_put_error(i32 noundef 17, i32 noundef 0, i32 noundef 101, ptr noundef @.str, i32 noundef 340)
  store i32 0, ptr %5, align 4
  store i32 1, ptr %13, align 4
  br label %87

74:                                               ; preds = %66
  %75 = load ptr, ptr %10, align 8, !tbaa !23
  %76 = load ptr, ptr %7, align 8, !tbaa !11
  %77 = load ptr, ptr %8, align 8, !tbaa !13
  %78 = call i64 @bio_zero_copy_get_write_buf(ptr noundef %75, ptr noundef %76, ptr noundef %77)
  store i64 %78, ptr %12, align 8, !tbaa !15
  %79 = load i64, ptr %12, align 8, !tbaa !15
  %80 = icmp ugt i64 %79, 0
  br i1 %80, label %81, label %84

81:                                               ; preds = %74
  %82 = load ptr, ptr %10, align 8, !tbaa !23
  %83 = getelementptr inbounds nuw %struct.bio_bio_st, ptr %82, i32 0, i32 8
  store i8 1, ptr %83, align 2, !tbaa !34
  br label %84

84:                                               ; preds = %81, %74
  %85 = load i64, ptr %12, align 8, !tbaa !15
  %86 = load ptr, ptr %9, align 8, !tbaa !13
  store i64 %85, ptr %86, align 8, !tbaa !15
  store i32 1, ptr %5, align 4
  store i32 1, ptr %13, align 4
  br label %87

87:                                               ; preds = %84, %73, %65, %59, %37, %20
  call void @llvm.lifetime.end.p0(i64 8, ptr %12) #8
  call void @llvm.lifetime.end.p0(i64 8, ptr %11) #8
  call void @llvm.lifetime.end.p0(i64 8, ptr %10) #8
  %88 = load i32, ptr %5, align 4
  ret i32 %88
}