; Function Attrs: nounwind uwtable
define hidden range(i32 0, 2) i32 @BIO_zero_copy_get_write_buf(ptr noundef %0, ptr noundef writeonly captures(none) %1, ptr noundef writeonly captures(none) %2, ptr noundef writeonly captures(none) initializes((0, 8)) %3) local_unnamed_addr #0 {
  store i64 0, ptr %3, align 8, !tbaa !6
  tail call void @BIO_clear_retry_flags(ptr noundef %0) #12
  %5 = getelementptr inbounds nuw i8, ptr %0, i64 24
  %6 = load i32, ptr %5, align 8, !tbaa !10
  %.not = icmp eq i32 %6, 0
  br i1 %.not, label %7, label %8

7:                                                ; preds = %4
  tail call void @ERR_put_error(i32 noundef 17, i32 noundef 0, i32 noundef 114, ptr noundef nonnull @.str, i32 noundef 314) #12
  br label %48

8:                                                ; preds = %4
  %9 = getelementptr inbounds nuw i8, ptr %0, i64 48
  %10 = load ptr, ptr %9, align 8, !tbaa !17
  %.not26 = icmp eq ptr %10, null
  br i1 %.not26, label %16, label %11

11:                                               ; preds = %8
  %12 = getelementptr inbounds nuw i8, ptr %10, i64 40
  %13 = load ptr, ptr %12, align 8, !tbaa !25
  %.not27 = icmp eq ptr %13, null
  br i1 %.not27, label %16, label %14

14:                                               ; preds = %11
  %15 = load ptr, ptr %10, align 8, !tbaa !18
  %.not28 = icmp eq ptr %15, null
  br i1 %.not28, label %16, label %17

16:                                               ; preds = %14, %11, %8
  tail call void @ERR_put_error(i32 noundef 17, i32 noundef 0, i32 noundef 115, ptr noundef nonnull @.str, i32 noundef 321) #12
  br label %48

17:                                               ; preds = %14
  %18 = getelementptr inbounds nuw i8, ptr %15, i64 48
  %19 = load ptr, ptr %18, align 8, !tbaa !17
  %.not29 = icmp eq ptr %19, null
  br i1 %.not29, label %25, label %20

20:                                               ; preds = %17
  %21 = load ptr, ptr %19, align 8, !tbaa !18
  %.not30 = icmp eq ptr %21, null
  br i1 %.not30, label %25, label %22

22:                                               ; preds = %20
  %23 = getelementptr inbounds nuw i8, ptr %21, i64 48
  %24 = load ptr, ptr %23, align 8, !tbaa !17
  %.not31 = icmp eq ptr %24, %10
  br i1 %.not31, label %26, label %25

25:                                               ; preds = %22, %20, %17
  tail call void @ERR_put_error(i32 noundef 17, i32 noundef 0, i32 noundef 115, ptr noundef nonnull @.str, i32 noundef 326) #12
  br label %48

26:                                               ; preds = %22
  %27 = getelementptr inbounds nuw i8, ptr %10, i64 50
  %28 = load i8, ptr %27, align 2, !tbaa !27
  %.not32 = icmp eq i8 %28, 0
  br i1 %.not32, label %30, label %29

29:                                               ; preds = %26
  tail call void @ERR_put_error(i32 noundef 17, i32 noundef 0, i32 noundef 104, ptr noundef nonnull @.str, i32 noundef 333) #12
  br label %48

30:                                               ; preds = %26
  %31 = getelementptr inbounds nuw i8, ptr %10, i64 56
  store i64 0, ptr %31, align 8, !tbaa !21
  %32 = getelementptr inbounds nuw i8, ptr %10, i64 8
  %33 = load i32, ptr %32, align 8, !tbaa !29
  %.not33 = icmp eq i32 %33, 0
  br i1 %.not33, label %35, label %34

34:                                               ; preds = %30
  tail call void @ERR_put_error(i32 noundef 17, i32 noundef 0, i32 noundef 101, ptr noundef nonnull @.str, i32 noundef 340) #12
  br label %48

35:                                               ; preds = %30
  %36 = getelementptr inbounds nuw i8, ptr %10, i64 24
  %37 = load i64, ptr %36, align 8, !tbaa !24
  %38 = getelementptr inbounds nuw i8, ptr %10, i64 16
  %39 = load i64, ptr %38, align 8, !tbaa !22
  %40 = add i64 %39, %37
  %41 = getelementptr inbounds nuw i8, ptr %10, i64 32
  %42 = load i64, ptr %41, align 8, !tbaa !23
  %.not.i = icmp ult i64 %40, %42
  %43 = sub nuw i64 %40, %42
  %44 = sub i64 %37, %43
  %45 = sub nuw i64 %42, %40
  %.014.i = select i1 %.not.i, i64 %40, i64 %43
  %.0.i = select i1 %.not.i, i64 %45, i64 %44
  store ptr %13, ptr %1, align 8, !tbaa !26
  store i64 %.014.i, ptr %2, align 8, !tbaa !6
  %.not34 = icmp eq i64 %.0.i, 0
  br i1 %.not34, label %47, label %46

46:                                               ; preds = %35
  store i8 1, ptr %27, align 2, !tbaa !27
  br label %47

47:                                               ; preds = %46, %35
  store i64 %.0.i, ptr %3, align 8, !tbaa !6
  br label %48

48:                                               ; preds = %47, %34, %29, %25, %16, %7
  %.0 = phi i32 [ 0, %25 ], [ 0, %29 ], [ 0, %34 ], [ 1, %47 ], [ 0, %16 ], [ 0, %7 ]
  ret i32 %.0
}